; Function Attrs: mustprogress nounwind uwtable
define hidden void @_ZN7ciKlassC2EP8ciSymbol9BasicType(ptr noundef nonnull align 8 dereferenceable(44) %0, ptr noundef %1, i8 noundef zeroext %2) unnamed_addr #0 align 2 {
  tail call void @_ZN6ciTypeC2E9BasicType(ptr noundef nonnull align 8 dereferenceable(25) %0, i8 noundef zeroext %2) #5
  store ptr getelementptr inbounds inrange(-16, 216) (i8, ptr @_ZTV7ciKlass, i64 16), ptr %0, align 8
  %4 = getelementptr inbounds i8, ptr %0, i64 32
  store ptr %1, ptr %4, align 8
  %5 = getelementptr inbounds i8, ptr %0, i64 40
  store i32 0, ptr %5, align 8
  ret void
}